target datalayout = "e-m:e-p270:32:32-p271:32:32-p272:64:64-i64:64-i128:128-f80:128-n8:16:32:64-S128"
target triple = "x86_64-unknown-linux-gnu"

%struct.UHCIState = type { %struct.PCIDevice, %struct.MemoryRegion, %struct.USBBus, i16, i16, i16, i16, i32, i8, i8, i64, ptr, ptr, i32, i32, i8, [2 x %struct.UHCIPort], ptr, i32, %union.anon.8, i8, ptr, i32, i32 }
%struct.PCIDevice = type { %struct.DeviceState, i8, i8, ptr, ptr, ptr, ptr, ptr, i32, %struct.PCIReqIDCache, [64 x i8], [7 x %struct.PCIIORegion], %struct.AddressSpace, %struct.MemoryRegion, %struct.MemoryRegion, ptr, ptr, [3 x ptr], i8, i8, i32, i8, i32, ptr, ptr, ptr, ptr, ptr, ptr, %struct.MemoryRegion, %struct.MemoryRegion, %struct.MemoryRegion, ptr, i8, i32, i8, %struct.PCIExpressDevice, ptr, ptr, i32, i8, %struct.MemoryRegion, i32, ptr, ptr, ptr, ptr, ptr, i32 }
%struct.DeviceState = type { %struct.Object, ptr, ptr, i8, i8, i64, ptr, i32, i8, ptr, %struct.NamedGPIOListHead, %struct.NamedClockListHead, %struct.BusStateHead, i32, i32, i32, %struct.ResettableState, ptr, %struct.MemReentrancyGuard }
%struct.Object = type { ptr, ptr, ptr, i32, ptr }
%struct.NamedGPIOListHead = type { ptr }
%struct.NamedClockListHead = type { ptr }
%struct.BusStateHead = type { ptr }
%struct.ResettableState = type { i32, i8, i8 }
%struct.MemReentrancyGuard = type { i8 }
%struct.PCIReqIDCache = type { ptr, i32 }
%struct.PCIIORegion = type { i64, i64, i8, ptr, ptr }
%struct.AddressSpace = type { %struct.rcu_head, ptr, ptr, ptr, i32, i32, ptr, %union.anon, %union.anon.0 }
%struct.rcu_head = type { ptr, ptr }
%union.anon = type { %struct.QTailQLink }
%struct.QTailQLink = type { ptr, ptr }
%union.anon.0 = type { %struct.QTailQLink }
%struct.PCIExpressDevice = type { i8, i8, i8, i16, %struct.PCIEAERLog, i16, i16, i16, %struct.PCIESriovPF, %struct.PCIESriovVF }
%struct.PCIEAERLog = type { i16, i16, ptr }
%struct.PCIESriovPF = type { i16, [7 x i8], ptr, ptr }
%struct.PCIESriovVF = type { ptr, i16 }
%struct.MemoryRegion = type { %struct.Object, i8, i8, i8, i8, i8, i8, i8, i8, i8, i8, ptr, ptr, ptr, ptr, ptr, ptr, i32, i128, i64, ptr, i64, i8, i8, i8, i8, i8, ptr, i64, i32, %union.anon.1, %union.anon.2, %union.anon.3, ptr, i32, ptr, ptr, i8 }
%union.anon.1 = type { %struct.QTailQLink }
%union.anon.2 = type { %struct.QTailQLink }
%union.anon.3 = type { %struct.QTailQLink }
%struct.USBBus = type { %struct.BusState, ptr, i32, i32, i32, %union.anon.4, %union.anon.5, %union.anon.6 }
%struct.BusState = type { %struct.Object, ptr, ptr, ptr, i32, i8, i8, i32, %union.BusChildHead, %struct.BusStateEntry, %struct.ResettableState }
%union.BusChildHead = type { %struct.QTailQLink }
%struct.BusStateEntry = type { ptr, ptr }
%union.anon.4 = type { %struct.QTailQLink }
%union.anon.5 = type { %struct.QTailQLink }
%union.anon.6 = type { %struct.QTailQLink }
%struct.UHCIPort = type { %struct.USBPort, i16 }
%struct.USBPort = type { ptr, i32, i32, [16 x i8], ptr, ptr, i32, %union.anon.7 }
%union.anon.7 = type { %struct.QTailQLink }
%union.anon.8 = type { %struct.QTailQLink }
%struct.USBEndpoint = type { i8, i8, i8, i8, i32, i32, i8, i8, ptr, %union.anon.11 }
%union.anon.11 = type { %struct.QTailQLink }
%struct.UHCIQueue = type { i32, i32, ptr, ptr, %union.anon.13, %union.anon.14, i8 }
%union.anon.13 = type { %struct.QTailQLink }
%union.anon.14 = type { %struct.QTailQLink }
%struct.timeval = type { i64, i64 }

@trace_events_enabled_count = external global i32, align 4
@message_with_timestamp = external global i8, align 1
@qemu_loglevel = external global i32, align 4
@_TRACE_USB_UHCI_QUEUE_DEL_DSTATE = external global i16, align 2
@.str.11 = private unnamed_addr constant [48 x i8] c"%d@%zu.%06zu:usb_uhci_queue_del token 0x%x: %s\0A\00", align 1
@.str.12 = private unnamed_addr constant [35 x i8] c"usb_uhci_queue_del token 0x%x: %s\0A\00", align 1

; Function Attrs: nounwind sspstrong uwtable
define internal zeroext i1 @qemu_loglevel_mask(i32 noundef %mask) #0 {
entry:
  %mask.addr = alloca i32, align 4
  store i32 %mask, ptr %mask.addr, align 4
  %0 = load i32, ptr @qemu_loglevel, align 4
  %1 = load i32, ptr %mask.addr, align 4
  %and = and i32 %0, %1
  %cmp = icmp ne i32 %and, 0
  ret i1 %cmp
}

; Function Attrs: nounwind sspstrong uwtable
define internal void @_nocheck__trace_usb_uhci_queue_del(i32 noundef %token, ptr noundef %reason) #0 {
entry:
  %token.addr = alloca i32, align 4
  %reason.addr = alloca ptr, align 8
  %_now = alloca %struct.timeval, align 8
  store i32 %token, ptr %token.addr, align 4
  store ptr %reason, ptr %reason.addr, align 8
  %0 = load i32, ptr @trace_events_enabled_count, align 4
  %tobool = icmp ne i32 %0, 0
  %lnot = xor i1 %tobool, true
  %lnot1 = xor i1 %lnot, true
  %lnot.ext = zext i1 %lnot1 to i32
  %conv = sext i32 %lnot.ext to i64
  %tobool2 = icmp ne i64 %conv, 0
  br i1 %tobool2, label %land.lhs.true, label %if.end11

land.lhs.true:                                    ; preds = %entry
  %1 = load i16, ptr @_TRACE_USB_UHCI_QUEUE_DEL_DSTATE, align 2
  %conv3 = zext i16 %1 to i32
  %tobool4 = icmp ne i32 %conv3, 0
  br i1 %tobool4, label %land.lhs.true5, label %if.end11

land.lhs.true5:                                   ; preds = %land.lhs.true
  %call = call zeroext i1 @qemu_loglevel_mask(i32 noundef 32768)
  br i1 %call, label %if.then, label %if.end11

if.then:                                          ; preds = %land.lhs.true5
  %2 = load i8, ptr @message_with_timestamp, align 1
  %tobool7 = trunc i8 %2 to i1
  br i1 %tobool7, label %if.then8, label %if.else

if.then8:                                         ; preds = %if.then
  %call9 = call i32 @gettimeofday(ptr noundef %_now, ptr noundef null) #7
  %call10 = call i32 @qemu_get_thread_id()
  %tv_sec = getelementptr inbounds %struct.timeval, ptr %_now, i32 0, i32 0
  %3 = load i64, ptr %tv_sec, align 8
  %tv_usec = getelementptr inbounds %struct.timeval, ptr %_now, i32 0, i32 1
  %4 = load i64, ptr %tv_usec, align 8
  %5 = load i32, ptr %token.addr, align 4
  %6 = load ptr, ptr %reason.addr, align 8
  call void (ptr, ...) @qemu_log(ptr noundef @.str.11, i32 noundef %call10, i64 noundef %3, i64 noundef %4, i32 noundef %5, ptr noundef %6)
  br label %if.end

if.else:                                          ; preds = %if.then
  %7 = load i32, ptr %token.addr, align 4
  %8 = load ptr, ptr %reason.addr, align 8
  call void (ptr, ...) @qemu_log(ptr noundef @.str.12, i32 noundef %7, ptr noundef %8)
  br label %if.end

if.end:                                           ; preds = %if.else, %if.then8
  br label %if.end11

if.end11:                                         ; preds = %if.end, %land.lhs.true5, %land.lhs.true, %entry
  ret void
}

; Function Attrs: nounwind sspstrong uwtable
define internal void @trace_usb_uhci_queue_del(i32 noundef %token, ptr noundef %reason) #0 {
entry:
  %token.addr = alloca i32, align 4
  %reason.addr = alloca ptr, align 8
  store i32 %token, ptr %token.addr, align 4
  store ptr %reason, ptr %reason.addr, align 8
  %0 = load i32, ptr %token.addr, align 4
  %1 = load ptr, ptr %reason.addr, align 8
  call void @_nocheck__trace_usb_uhci_queue_del(i32 noundef %0, ptr noundef %1)
  ret void
}

; Function Attrs: nounwind sspstrong uwtable
define internal void @uhci_queue_free(ptr noundef %queue, ptr noundef %reason) #0 {
entry:
  %queue.addr = alloca ptr, align 8
  %reason.addr = alloca ptr, align 8
  %s = alloca ptr, align 8
  %async = alloca ptr, align 8
  store ptr %queue, ptr %queue.addr, align 8
  store ptr %reason, ptr %reason.addr, align 8
  %0 = load ptr, ptr %queue.addr, align 8
  %uhci = getelementptr inbounds %struct.UHCIQueue, ptr %0, i32 0, i32 2
  %1 = load ptr, ptr %uhci, align 8
  store ptr %1, ptr %s, align 8
  br label %while.cond

while.cond:                                       ; preds = %while.body, %entry
  %2 = load ptr, ptr %queue.addr, align 8
  %asyncs = getelementptr inbounds %struct.UHCIQueue, ptr %2, i32 0, i32 5
  %3 = load ptr, ptr %asyncs, align 8
  %cmp = icmp eq ptr %3, null
  %lnot = xor i1 %cmp, true
  br i1 %lnot, label %while.body, label %while.end

while.body:                                       ; preds = %while.cond
  %4 = load ptr, ptr %queue.addr, align 8
  %asyncs1 = getelementptr inbounds %struct.UHCIQueue, ptr %4, i32 0, i32 5
  %5 = load ptr, ptr %asyncs1, align 8
  store ptr %5, ptr %async, align 8
  %6 = load ptr, ptr %async, align 8
  call void @uhci_async_cancel(ptr noundef %6)
  br label %while.cond, !llvm.loop !11

while.end:                                        ; preds = %while.cond
  %7 = load ptr, ptr %queue.addr, align 8
  %ep = getelementptr inbounds %struct.UHCIQueue, ptr %7, i32 0, i32 3
  %8 = load ptr, ptr %ep, align 8
  %dev = getelementptr inbounds %struct.USBEndpoint, ptr %8, i32 0, i32 8
  %9 = load ptr, ptr %dev, align 8
  %10 = load ptr, ptr %queue.addr, align 8
  %ep2 = getelementptr inbounds %struct.UHCIQueue, ptr %10, i32 0, i32 3
  %11 = load ptr, ptr %ep2, align 8
  call void @usb_device_ep_stopped(ptr noundef %9, ptr noundef %11)
  %12 = load ptr, ptr %queue.addr, align 8
  %token = getelementptr inbounds %struct.UHCIQueue, ptr %12, i32 0, i32 1
  %13 = load i32, ptr %token, align 4
  %14 = load ptr, ptr %reason.addr, align 8
  call void @trace_usb_uhci_queue_del(i32 noundef %13, ptr noundef %14)
  br label %do.body

do.body:                                          ; preds = %while.end
  %15 = load ptr, ptr %queue.addr, align 8
  %next = getelementptr inbounds %struct.UHCIQueue, ptr %15, i32 0, i32 4
  %16 = load ptr, ptr %next, align 8
  %cmp3 = icmp ne ptr %16, null
  br i1 %cmp3, label %if.then, label %if.else

if.then:                                          ; preds = %do.body
  %17 = load ptr, ptr %queue.addr, align 8
  %next4 = getelementptr inbounds %struct.UHCIQueue, ptr %17, i32 0, i32 4
  %tql_prev = getelementptr inbounds %struct.QTailQLink, ptr %next4, i32 0, i32 1
  %18 = load ptr, ptr %tql_prev, align 8
  %19 = load ptr, ptr %queue.addr, align 8
  %next5 = getelementptr inbounds %struct.UHCIQueue, ptr %19, i32 0, i32 4
  %20 = load ptr, ptr %next5, align 8
  %next6 = getelementptr inbounds %struct.UHCIQueue, ptr %20, i32 0, i32 4
  %tql_prev7 = getelementptr inbounds %struct.QTailQLink, ptr %next6, i32 0, i32 1
  store ptr %18, ptr %tql_prev7, align 8
  br label %if.end

if.else:                                          ; preds = %do.body
  %21 = load ptr, ptr %queue.addr, align 8
  %next8 = getelementptr inbounds %struct.UHCIQueue, ptr %21, i32 0, i32 4
  %tql_prev9 = getelementptr inbounds %struct.QTailQLink, ptr %next8, i32 0, i32 1
  %22 = load ptr, ptr %tql_prev9, align 8
  %23 = load ptr, ptr %s, align 8
  %queues = getelementptr inbounds %struct.UHCIState, ptr %23, i32 0, i32 19
  %tql_prev10 = getelementptr inbounds %struct.QTailQLink, ptr %queues, i32 0, i32 1
  store ptr %22, ptr %tql_prev10, align 8
  br label %if.end

if.end:                                           ; preds = %if.else, %if.then
  %24 = load ptr, ptr %queue.addr, align 8
  %next11 = getelementptr inbounds %struct.UHCIQueue, ptr %24, i32 0, i32 4
  %25 = load ptr, ptr %next11, align 8
  %26 = load ptr, ptr %queue.addr, align 8
  %next12 = getelementptr inbounds %struct.UHCIQueue, ptr %26, i32 0, i32 4
  %tql_prev13 = getelementptr inbounds %struct.QTailQLink, ptr %next12, i32 0, i32 1
  %27 = load ptr, ptr %tql_prev13, align 8
  %tql_next = getelementptr inbounds %struct.QTailQLink, ptr %27, i32 0, i32 0
  store ptr %25, ptr %tql_next, align 8
  %28 = load ptr, ptr %queue.addr, align 8
  %next14 = getelementptr inbounds %struct.UHCIQueue, ptr %28, i32 0, i32 4
  %tql_prev15 = getelementptr inbounds %struct.QTailQLink, ptr %next14, i32 0, i32 1
  store ptr null, ptr %tql_prev15, align 8
  %29 = load ptr, ptr %queue.addr, align 8
  %next16 = getelementptr inbounds %struct.UHCIQueue, ptr %29, i32 0, i32 4
  %tql_next17 = getelementptr inbounds %struct.QTailQLink, ptr %next16, i32 0, i32 0
  store ptr null, ptr %tql_next17, align 8
  %30 = load ptr, ptr %queue.addr, align 8
  %next18 = getelementptr inbounds %struct.UHCIQueue, ptr %30, i32 0, i32 4
  store ptr null, ptr %next18, align 8
  br label %do.end

do.end:                                           ; preds = %if.end
  %31 = load ptr, ptr %queue.addr, align 8
  call void @g_free(ptr noundef %31)
  ret void
}