; Function Attrs: nounwind sspstrong uwtable
define internal fastcc void @uhci_queue_free(ptr noundef %queue, ptr noundef %reason) unnamed_addr #0 {
entry:
  %_now.i.i = alloca %struct.timeval, align 8
  %uhci = getelementptr inbounds nuw i8, ptr %queue, i64 8
  %0 = load ptr, ptr %uhci, align 8
  %asyncs = getelementptr inbounds nuw i8, ptr %queue, i64 40
  %1 = load ptr, ptr %asyncs, align 8
  %cmp.not16 = icmp eq ptr %1, null
  br i1 %cmp.not16, label %while.end, label %while.body

while.body:                                       ; preds = %entry, %while.body
  %2 = phi ptr [ %3, %while.body ], [ %1, %entry ]
  tail call fastcc void @uhci_async_cancel(ptr noundef nonnull %2)
  %3 = load ptr, ptr %asyncs, align 8
  %cmp.not = icmp eq ptr %3, null
  br i1 %cmp.not, label %while.end, label %while.body, !llvm.loop !8

while.end:                                        ; preds = %while.body, %entry
  %ep = getelementptr inbounds nuw i8, ptr %queue, i64 16
  %4 = load ptr, ptr %ep, align 8
  %dev = getelementptr inbounds nuw i8, ptr %4, i64 16
  %5 = load ptr, ptr %dev, align 8
  tail call void @usb_device_ep_stopped(ptr noundef %5, ptr noundef %4) #11
  %token = getelementptr inbounds nuw i8, ptr %queue, i64 4
  %6 = load i32, ptr %token, align 4
  call void @llvm.lifetime.start.p0(i64 16, ptr nonnull %_now.i.i)
  %7 = load i32, ptr @trace_events_enabled_count, align 4
  %tobool.i.i = icmp ne i32 %7, 0
  %8 = load i16, ptr @_TRACE_USB_UHCI_QUEUE_DEL_DSTATE, align 2
  %tobool4.i.i = icmp ne i16 %8, 0
  %or.cond.i.i = select i1 %tobool.i.i, i1 %tobool4.i.i, i1 false
  br i1 %or.cond.i.i, label %land.lhs.true5.i.i, label %trace_usb_uhci_queue_del.exit

land.lhs.true5.i.i:                               ; preds = %while.end
  %9 = load i32, ptr @qemu_loglevel, align 4
  %and.i.i.i = and i32 %9, 32768
  %cmp.i.not.i.i = icmp eq i32 %and.i.i.i, 0
  br i1 %cmp.i.not.i.i, label %trace_usb_uhci_queue_del.exit, label %if.then.i.i

if.then.i.i:                                      ; preds = %land.lhs.true5.i.i
  %10 = load i8, ptr @message_with_timestamp, align 1
  %tobool7.i.i = trunc i8 %10 to i1
  br i1 %tobool7.i.i, label %if.then8.i.i, label %if.else.i.i

if.then8.i.i:                                     ; preds = %if.then.i.i
  %call9.i.i = call i32 @gettimeofday(ptr noundef nonnull %_now.i.i, ptr noundef null) #11
  %call10.i.i = tail call i32 @qemu_get_thread_id() #11
  %11 = load i64, ptr %_now.i.i, align 8
  %tv_usec.i.i = getelementptr inbounds nuw i8, ptr %_now.i.i, i64 8
  %12 = load i64, ptr %tv_usec.i.i, align 8
  tail call void (ptr, ...) @qemu_log(ptr noundef nonnull @.str.11, i32 noundef %call10.i.i, i64 noundef %11, i64 noundef %12, i32 noundef %6, ptr noundef %reason) #11
  br label %trace_usb_uhci_queue_del.exit

if.else.i.i:                                      ; preds = %if.then.i.i
  tail call void (ptr, ...) @qemu_log(ptr noundef nonnull @.str.12, i32 noundef %6, ptr noundef %reason) #11
  br label %trace_usb_uhci_queue_del.exit

trace_usb_uhci_queue_del.exit:                    ; preds = %while.end, %land.lhs.true5.i.i, %if.then8.i.i, %if.else.i.i
  call void @llvm.lifetime.end.p0(i64 16, ptr nonnull %_now.i.i)
  %next = getelementptr inbounds nuw i8, ptr %queue, i64 24
  %13 = load ptr, ptr %next, align 8
  %cmp3.not = icmp eq ptr %13, null
  %tql_prev9 = getelementptr inbounds nuw i8, ptr %queue, i64 32
  %14 = load ptr, ptr %tql_prev9, align 8
  br i1 %cmp3.not, label %if.else, label %if.then

if.then:                                          ; preds = %trace_usb_uhci_queue_del.exit
  %tql_prev7 = getelementptr inbounds nuw i8, ptr %13, i64 32
  store ptr %14, ptr %tql_prev7, align 8
  br label %if.end

if.else:                                          ; preds = %trace_usb_uhci_queue_del.exit
  %tql_prev10 = getelementptr inbounds nuw i8, ptr %0, i64 3312
  store ptr %14, ptr %tql_prev10, align 8
  br label %if.end

if.end:                                           ; preds = %if.else, %if.then
  %15 = load ptr, ptr %next, align 8
  store ptr %15, ptr %14, align 8
  tail call void @llvm.memset.p0.i64(ptr noundef nonnull align 8 dereferenceable(16) %next, i8 0, i64 16, i1 false)
  tail call void @g_free(ptr noundef nonnull %queue) #11
  ret void
}